target datalayout = "e-m:e-p270:32:32-p271:32:32-p272:64:64-i64:64-i128:128-f80:128-n8:16:32:64-S128"
target triple = "x86_64-pc-linux-gnu"

%struct.IOStreamMemData = type { ptr, ptr, ptr }

; Function Attrs: nounwind uwtable
define internal i64 @mem_io(ptr noundef %0, ptr noundef %1, ptr noundef %2, i64 noundef %3) #0 {
  %5 = alloca ptr, align 8
  %6 = alloca ptr, align 8
  %7 = alloca ptr, align 8
  %8 = alloca i64, align 8
  %9 = alloca ptr, align 8
  %10 = alloca i64, align 8
  store ptr %0, ptr %5, align 8
  store ptr %1, ptr %6, align 8
  store ptr %2, ptr %7, align 8
  store i64 %3, ptr %8, align 8
  call void @llvm.lifetime.start.p0(i64 8, ptr %9) #11
  %11 = load ptr, ptr %5, align 8
  store ptr %11, ptr %9, align 8
  call void @llvm.lifetime.start.p0(i64 8, ptr %10) #11
  %12 = load ptr, ptr %9, align 8
  %13 = getelementptr inbounds nuw %struct.IOStreamMemData, ptr %12, i32 0, i32 2
  %14 = load ptr, ptr %13, align 8
  %15 = load ptr, ptr %9, align 8
  %16 = getelementptr inbounds nuw %struct.IOStreamMemData, ptr %15, i32 0, i32 1
  %17 = load ptr, ptr %16, align 8
  %18 = ptrtoint ptr %14 to i64
  %19 = ptrtoint ptr %17 to i64
  %20 = sub i64 %18, %19
  store i64 %20, ptr %10, align 8
  %21 = load i64, ptr %8, align 8
  %22 = load i64, ptr %10, align 8
  %23 = icmp ugt i64 %21, %22
  br i1 %23, label %24, label %26

24:                                               ; preds = %4
  %25 = load i64, ptr %10, align 8
  store i64 %25, ptr %8, align 8
  br label %26

26:                                               ; preds = %24, %4
  %27 = load ptr, ptr %6, align 8
  %28 = load ptr, ptr %7, align 8
  %29 = load i64, ptr %8, align 8
  call void @llvm.memcpy.p0.p0.i64(ptr align 1 %27, ptr align 1 %28, i64 %29, i1 false)
  %30 = load i64, ptr %8, align 8
  %31 = load ptr, ptr %9, align 8
  %32 = getelementptr inbounds nuw %struct.IOStreamMemData, ptr %31, i32 0, i32 1
  %33 = load ptr, ptr %32, align 8
  %34 = getelementptr inbounds nuw i8, ptr %33, i64 %30
  store ptr %34, ptr %32, align 8
  %35 = load i64, ptr %8, align 8
  call void @llvm.lifetime.end.p0(i64 8, ptr %10) #11
  call void @llvm.lifetime.end.p0(i64 8, ptr %9) #11
  ret i64 %35
}

; Function Attrs: nounwind uwtable
define internal i64 @mem_write(ptr noundef %0, ptr noundef %1, i64 noundef %2, ptr noundef %3) #0 {
  %5 = alloca ptr, align 8
  %6 = alloca ptr, align 8
  %7 = alloca i64, align 8
  %8 = alloca ptr, align 8
  %9 = alloca ptr, align 8
  store ptr %0, ptr %5, align 8
  store ptr %1, ptr %6, align 8
  store i64 %2, ptr %7, align 8
  store ptr %3, ptr %8, align 8
  call void @llvm.lifetime.start.p0(i64 8, ptr %9) #11
  %10 = load ptr, ptr %5, align 8
  store ptr %10, ptr %9, align 8
  %11 = load ptr, ptr %5, align 8
  %12 = load ptr, ptr %9, align 8
  %13 = getelementptr inbounds nuw %struct.IOStreamMemData, ptr %12, i32 0, i32 1
  %14 = load ptr, ptr %13, align 8
  %15 = load ptr, ptr %6, align 8
  %16 = load i64, ptr %7, align 8
  %17 = call i64 @mem_io(ptr noundef %11, ptr noundef %14, ptr noundef %15, i64 noundef %16)
  call void @llvm.lifetime.end.p0(i64 8, ptr %9) #11
  ret i64 %17
}