; Function Attrs: mustprogress nofree norecurse nosync nounwind willreturn memory(readwrite, inaccessiblemem: none) uwtable
define internal i64 @mem_write(ptr noundef captures(none) %0, ptr noundef readonly captures(none) %1, i64 noundef %2, ptr readnone captures(none) %3) #9 {
  %5 = getelementptr inbounds nuw i8, ptr %0, i64 8
  %6 = load ptr, ptr %5, align 8
  %7 = getelementptr inbounds nuw i8, ptr %0, i64 16
  %8 = load ptr, ptr %7, align 8
  %9 = ptrtoint ptr %8 to i64
  %10 = ptrtoint ptr %6 to i64
  %11 = sub i64 %9, %10
  %spec.select.i = tail call i64 @llvm.umin.i64(i64 %2, i64 %11)
  tail call void @llvm.memcpy.p0.p0.i64(ptr align 1 %6, ptr readonly align 1 %1, i64 %spec.select.i, i1 false)
  %12 = load ptr, ptr %5, align 8
  %13 = getelementptr inbounds nuw i8, ptr %12, i64 %spec.select.i
  store ptr %13, ptr %5, align 8
  ret i64 %spec.select.i
}